; ModuleID = '23/1231.c'
source_filename = "23/1231.c"
target datalayout = "e-m:e-p270:32:32-p271:32:32-p272:64:64-i64:64-f80:128-n8:16:32:64-S128"
target triple = "x86_64-pc-linux-gnu"

@.str = private unnamed_addr constant [4 x i8] c"%s \00", align 1
@.str.1 = private unnamed_addr constant [3 x i8] c"%s\00", align 1

; Function Attrs: noinline nounwind uwtable
define dso_local void @main() #0 {
  %1 = alloca i32, align 4
  %2 = alloca i32, align 4
  %3 = alloca i32, align 4
  %4 = alloca i32, align 4
  %5 = alloca i32, align 4
  %6 = alloca i32, align 4
  %7 = alloca [100 x i8], align 16
  %8 = alloca i8*, align 8
  %9 = alloca [100 x i8], align 16
  %10 = alloca [100 x i8*], align 16
  %11 = alloca [100 x [100 x i8]], align 16
  %12 = getelementptr inbounds [100 x i8], [100 x i8]* %7, i64 0, i64 0
  %13 = call i32 (i8*, ...) bitcast (i32 (...)* @gets to i32 (i8*, ...)*)(i8* %12)
  %14 = getelementptr inbounds [100 x i8], [100 x i8]* %7, i64 0, i64 0
  %15 = call i64 @strlen(i8* %14) #3
  %16 = trunc i64 %15 to i32
  store i32 %16, i32* %3, align 4
  store i32 1, i32* %5, align 4
  %17 = getelementptr inbounds [100 x i8], [100 x i8]* %7, i64 0, i64 0
  store i8* %17, i8** %8, align 8
  br label %18

18:                                               ; preds = %39, %0
  %19 = load i8*, i8** %8, align 8
  %20 = getelementptr inbounds [100 x i8], [100 x i8]* %7, i64 0, i64 0
  %21 = load i32, i32* %3, align 4
  %22 = sext i32 %21 to i64
  %23 = getelementptr inbounds i8, i8* %20, i64 %22
  %24 = icmp ult i8* %19, %23
  br i1 %24, label %25, label %42

25:                                               ; preds = %18
  %26 = load i8*, i8** %8, align 8
  %27 = load i8, i8* %26, align 1
  %28 = sext i8 %27 to i32
  %29 = icmp eq i32 %28, 32
  br i1 %29, label %30, label %31

30:                                               ; preds = %25
  store i32 0, i32* %6, align 4
  br label %38

31:                                               ; preds = %25
  %32 = load i32, i32* %6, align 4
  %33 = icmp eq i32 %32, 0
  br i1 %33, label %34, label %37

34:                                               ; preds = %31
  store i32 1, i32* %6, align 4
  %35 = load i32, i32* %5, align 4
  %36 = add nsw i32 %35, 1
  store i32 %36, i32* %5, align 4
  br label %37

37:                                               ; preds = %34, %31
  br label %38

38:                                               ; preds = %37, %30
  br label %39

39:                                               ; preds = %38
  %40 = load i8*, i8** %8, align 8
  %41 = getelementptr inbounds i8, i8* %40, i32 1
  store i8* %41, i8** %8, align 8
  br label %18

42:                                               ; preds = %18
  store i32 0, i32* %1, align 4
  store i32 0, i32* %2, align 4
  %43 = getelementptr inbounds [100 x i8], [100 x i8]* %7, i64 0, i64 0
  store i8* %43, i8** %8, align 8
  store i32 0, i32* %4, align 4
  br label %44

44:                                               ; preds = %79, %42
  %45 = load i8*, i8** %8, align 8
  %46 = load i8, i8* %45, align 1
  %47 = sext i8 %46 to i32
  %48 = icmp ne i32 %47, 0
  br i1 %48, label %49, label %91

49:                                               ; preds = %44
  %50 = load i8*, i8** %8, align 8
  %51 = load i32, i32* %1, align 4
  %52 = sext i32 %51 to i64
  %53 = getelementptr inbounds [100 x i8*], [100 x i8*]* %10, i64 0, i64 %52
  store i8* %50, i8** %53, align 8
  br label %54

54:                                               ; preds = %78, %49
  %55 = load i8*, i8** %8, align 8
  %56 = load i8, i8* %55, align 1
  %57 = sext i8 %56 to i32
  %58 = icmp ne i32 %57, 32
  br i1 %58, label %59, label %79

59:                                               ; preds = %54
  %60 = load i8*, i8** %8, align 8
  %61 = load i8, i8* %60, align 1
  %62 = load i32, i32* %1, align 4
  %63 = sext i32 %62 to i64
  %64 = getelementptr inbounds [100 x i8*], [100 x i8*]* %10, i64 0, i64 %63
  %65 = load i8*, i8** %64, align 8
  %66 = load i32, i32* %2, align 4
  %67 = sext i32 %66 to i64
  %68 = getelementptr inbounds i8, i8* %65, i64 %67
  store i8 %61, i8* %68, align 1
  %69 = load i8*, i8** %8, align 8
  %70 = getelementptr inbounds i8, i8* %69, i32 1
  store i8* %70, i8** %8, align 8
  %71 = load i32, i32* %2, align 4
  %72 = add nsw i32 %71, 1
  store i32 %72, i32* %2, align 4
  %73 = load i8*, i8** %8, align 8
  %74 = load i8, i8* %73, align 1
  %75 = sext i8 %74 to i32
  %76 = icmp eq i32 %75, 0
  br i1 %76, label %77, label %78

77:                                               ; preds = %59
  br label %79

78:                                               ; preds = %59
  br label %54

79:                                               ; preds = %77, %54
  %80 = load i32, i32* %1, align 4
  %81 = sext i32 %80 to i64
  %82 = getelementptr inbounds [100 x i8*], [100 x i8*]* %10, i64 0, i64 %81
  %83 = load i8*, i8** %82, align 8
  %84 = load i32, i32* %2, align 4
  %85 = sext i32 %84 to i64
  %86 = getelementptr inbounds i8, i8* %83, i64 %85
  store i8 0, i8* %86, align 1
  %87 = load i32, i32* %1, align 4
  %88 = add nsw i32 %87, 1
  store i32 %88, i32* %1, align 4
  %89 = load i8*, i8** %8, align 8
  %90 = getelementptr inbounds i8, i8* %89, i32 1
  store i8* %90, i8** %8, align 8
  store i32 0, i32* %2, align 4
  br label %44

91:                                               ; preds = %44
  %92 = load i32, i32* %5, align 4
  %93 = sub nsw i32 %92, 1
  store i32 %93, i32* %1, align 4
  br label %94

94:                                               ; preds = %103, %91
  %95 = load i32, i32* %1, align 4
  %96 = icmp sgt i32 %95, 0
  br i1 %96, label %97, label %106

97:                                               ; preds = %94
  %98 = load i32, i32* %1, align 4
  %99 = sext i32 %98 to i64
  %100 = getelementptr inbounds [100 x i8*], [100 x i8*]* %10, i64 0, i64 %99
  %101 = load i8*, i8** %100, align 8
  %102 = call i32 (i8*, ...) @printf(i8* getelementptr inbounds ([4 x i8], [4 x i8]* @.str, i64 0, i64 0), i8* %101)
  br label %103

103:                                              ; preds = %97
  %104 = load i32, i32* %1, align 4
  %105 = add nsw i32 %104, -1
  store i32 %105, i32* %1, align 4
  br label %94

106:                                              ; preds = %94
  %107 = getelementptr inbounds [100 x i8*], [100 x i8*]* %10, i64 0, i64 0
  %108 = load i8*, i8** %107, align 16
  %109 = call i32 (i8*, ...) @printf(i8* getelementptr inbounds ([3 x i8], [3 x i8]* @.str.1, i64 0, i64 0), i8* %108)
  ret void
}

declare dso_local i32 @gets(...) #1

; Function Attrs: nounwind readonly
declare dso_local i64 @strlen(i8*) #2

declare dso_local i32 @printf(i8*, ...) #1


!llvm.module.flags = !{!0}
!llvm.ident = !{!1}

!0 = !{i32 1, !"wchar_size", i32 4}
!1 = !{!"clang version 10.0.0-4ubuntu1 "}
